; Function Attrs: nofree norecurse nosync nounwind memory(read, inaccessiblemem: none) uwtable
define i32 @Gia_ManCountNonConst0(ptr noundef readonly captures(none) %0) local_unnamed_addr #4 {
  %2 = getelementptr i8, ptr %0, i64 16
  %.val11 = load i32, ptr %2, align 8, !tbaa !60
  %3 = getelementptr i8, ptr %0, i64 72
  %.val12 = load ptr, ptr %3, align 8, !tbaa !65
  %4 = getelementptr i8, ptr %.val12, i64 4
  %.val12.val = load i32, ptr %4, align 4, !tbaa !62
  %5 = sub nsw i32 %.val12.val, %.val11
  %6 = icmp sgt i32 %5, 0
  br i1 %6, label %.lr.ph, label %.critedge

.lr.ph:                                           ; preds = %1
  %7 = getelementptr i8, ptr %0, i64 32
  %.val = load ptr, ptr %7, align 8, !tbaa !51
  %.not = icmp eq ptr %.val, null
  br i1 %.not, label %.critedge, label %.lr.ph.split

.lr.ph.split:                                     ; preds = %.lr.ph
  %8 = getelementptr i8, ptr %.val12, i64 8
  %.val10.val = load ptr, ptr %8, align 8, !tbaa !64
  %wide.trip.count = zext nneg i32 %5 to i64
  br label %9

9:                                                ; preds = %.lr.ph.split, %9
  %indvars.iv = phi i64 [ 0, %.lr.ph.split ], [ %indvars.iv.next, %9 ]
  %.015 = phi i32 [ 0, %.lr.ph.split ], [ %23, %9 ]
  %10 = getelementptr inbounds nuw i32, ptr %.val10.val, i64 %indvars.iv
  %11 = load i32, ptr %10, align 4, !tbaa !43
  %12 = sext i32 %11 to i64
  %13 = getelementptr inbounds %struct.Gia_Obj_t_, ptr %.val, i64 %12
  %.val3.i.i = load i64, ptr %13, align 4
  %14 = trunc i64 %.val3.i.i to i32
  %15 = and i32 %14, 536870911
  %16 = sub nsw i32 %11, %15
  %17 = lshr i32 %14, 29
  %18 = and i32 %17, 1
  %19 = shl nsw i32 %16, 1
  %20 = or disjoint i32 %19, %18
  %21 = icmp ne i32 %20, 0
  %22 = zext i1 %21 to i32
  %23 = add nuw nsw i32 %.015, %22
  %indvars.iv.next = add nuw nsw i64 %indvars.iv, 1
  %exitcond.not = icmp eq i64 %indvars.iv.next, %wide.trip.count
  br i1 %exitcond.not, label %.critedge, label %9, !llvm.loop !99

.critedge:                                        ; preds = %9, %.lr.ph, %1
  %.0.lcssa = phi i32 [ 0, %1 ], [ 0, %.lr.ph ], [ %23, %9 ]
  ret i32 %.0.lcssa
}